target datalayout = "e-m:e-p270:32:32-p271:32:32-p272:64:64-i64:64-i128:128-f80:128-n8:16:32:64-S128"
target triple = "x86_64-pc-linux-gnu"

@.str.61 = private unnamed_addr constant [7 x i8] c"radius\00", align 1
@.str.166 = private unnamed_addr constant [15 x i8] c"alternate_port\00", align 1

; Function Attrs: null_pointer_is_valid sspstrong uwtable
define internal void @radius_init_protocol() #0 {
  %1 = alloca ptr, align 8
  %2 = alloca ptr, align 8
  call void @llvm.lifetime.start.p0(i64 8, ptr %1) #17
  %3 = call ptr @prefs_find_module(ptr noundef @.str.61)
  store ptr %3, ptr %1, align 8
  call void @llvm.lifetime.start.p0(i64 8, ptr %2) #17
  %4 = load ptr, ptr %1, align 8
  %5 = icmp ne ptr %4, null
  br i1 %5, label %6, label %15

6:                                                ; preds = %0
  %7 = load ptr, ptr %1, align 8
  %8 = call ptr @prefs_find_preference(ptr noundef %7, ptr noundef @.str.166)
  store ptr %8, ptr %2, align 8
  %9 = load ptr, ptr %2, align 8
  %10 = call zeroext i1 @prefs_get_preference_obsolete(ptr noundef %9)
  br i1 %10, label %14, label %11

11:                                               ; preds = %6
  %12 = load ptr, ptr %2, align 8
  %13 = call i32 @prefs_set_preference_obsolete(ptr noundef %12)
  br label %14

14:                                               ; preds = %11, %6
  br label %15

15:                                               ; preds = %14, %0
  call void @llvm.lifetime.end.p0(i64 8, ptr %2) #17
  call void @llvm.lifetime.end.p0(i64 8, ptr %1) #17
  ret void
}