; Function Attrs: null_pointer_is_valid sspstrong uwtable
define internal void @radius_init_protocol() #0 {
  %1 = tail call ptr @prefs_find_module(ptr noundef nonnull @.str.61)
  %.not = icmp eq ptr %1, null
  br i1 %.not, label %7, label %2

2:                                                ; preds = %0
  %3 = tail call ptr @prefs_find_preference(ptr noundef nonnull %1, ptr noundef nonnull @.str.166)
  %4 = tail call zeroext i1 @prefs_get_preference_obsolete(ptr noundef %3)
  br i1 %4, label %7, label %5

5:                                                ; preds = %2
  %6 = tail call i32 @prefs_set_preference_obsolete(ptr noundef %3)
  br label %7

7:                                                ; preds = %2, %5, %0
  ret void
}